; Function Attrs: mustprogress nounwind uwtable
define void @_ZN6casadi12KinsolMemoryD2Ev(ptr noundef nonnull align 8 dereferenceable(168) %0) unnamed_addr #4 align 2 personality ptr @__gxx_personality_v0 {
  %2 = getelementptr inbounds i8, ptr %0, i64 152
  %3 = load ptr, ptr %2, align 8
  %.not = icmp eq ptr %3, null
  br i1 %.not, label %5, label %4

4:                                                ; preds = %1
  invoke void @N_VDestroy_Serial(ptr noundef nonnull %3)
          to label %5 unwind label %10

5:                                                ; preds = %4, %1
  %6 = getelementptr inbounds i8, ptr %0, i64 144
  %7 = load ptr, ptr %6, align 8
  %.not1 = icmp eq ptr %7, null
  br i1 %.not1, label %9, label %8

8:                                                ; preds = %5
  invoke void @KINFree(ptr noundef nonnull %6)
          to label %9 unwind label %10

9:                                                ; preds = %8, %5
  tail call void @_ZN6casadi12OracleMemoryD2Ev(ptr noundef nonnull align 8 dereferenceable(112) %0) #19
  ret void

10:                                               ; preds = %8, %4
  %11 = landingpad { ptr, i32 }
          catch ptr null
  %12 = extractvalue { ptr, i32 } %11, 0
  tail call void @__clang_call_terminate(ptr %12) #22
  unreachable
}